; Function Attrs: mustprogress uwtable
define hidden noundef zeroext i1 @_ZN3sls9bv_plugin9propagateEv(ptr noundef nonnull readonly align 8 captures(none) dereferenceable(1049) %0) unnamed_addr #3 align 2 {
  %2 = getelementptr inbounds nuw i8, ptr %0, i64 96
  %3 = getelementptr inbounds nuw i8, ptr %0, i64 104
  %4 = load ptr, ptr %3, align 8, !tbaa !91
  %5 = icmp eq ptr %4, null
  br i1 %5, label %_ZN15ref_vector_coreI4expr19ref_manager_wrapperIS0_11ast_managerEE5resetEv.exit, label %_ZNK15ref_vector_coreI4expr19ref_manager_wrapperIS0_11ast_managerEE5emptyEv.exit

_ZNK15ref_vector_coreI4expr19ref_manager_wrapperIS0_11ast_managerEE5emptyEv.exit: ; preds = %1
  %6 = getelementptr inbounds i8, ptr %4, i64 -4
  %7 = load i32, ptr %6, align 4, !tbaa !83
  %8 = icmp eq i32 %7, 0
  br i1 %8, label %_ZN15ref_vector_coreI4expr19ref_manager_wrapperIS0_11ast_managerEE5resetEv.exit, label %.lr.ph

.lr.ph:                                           ; preds = %_ZNK15ref_vector_coreI4expr19ref_manager_wrapperIS0_11ast_managerEE5emptyEv.exit
  %9 = zext i32 %7 to i64
  %10 = getelementptr inbounds nuw ptr, ptr %4, i64 %9
  %11 = getelementptr inbounds nuw i8, ptr %0, i64 8
  br label %29

._crit_edge:                                      ; preds = %29
  %.pre = load ptr, ptr %3, align 8, !tbaa !91
  %12 = icmp eq ptr %.pre, null
  br i1 %12, label %_ZN15ref_vector_coreI4expr19ref_manager_wrapperIS0_11ast_managerEE5resetEv.exit, label %_ZNK6vectorIP4exprLb0EjE4sizeEv.exit.i

_ZNK6vectorIP4exprLb0EjE4sizeEv.exit.i:           ; preds = %._crit_edge
  %13 = getelementptr inbounds i8, ptr %.pre, i64 -4
  %14 = load i32, ptr %13, align 4, !tbaa !83
  %15 = zext i32 %14 to i64
  %16 = getelementptr inbounds nuw ptr, ptr %.pre, i64 %15
  %.not.i = icmp eq i32 %14, 0
  br i1 %.not.i, label %_ZN15ref_vector_coreI4expr19ref_manager_wrapperIS0_11ast_managerEE13dec_range_refEPKPS0_S7_.exit.thread4.i, label %.lr.ph.i.i

.lr.ph.i.i:                                       ; preds = %_ZNK6vectorIP4exprLb0EjE4sizeEv.exit.i, %_ZN15ref_vector_coreI4expr19ref_manager_wrapperIS0_11ast_managerEE7dec_refEPS0_.exit.i.i
  %.06.i.i = phi ptr [ %25, %_ZN15ref_vector_coreI4expr19ref_manager_wrapperIS0_11ast_managerEE7dec_refEPS0_.exit.i.i ], [ %.pre, %_ZNK6vectorIP4exprLb0EjE4sizeEv.exit.i ]
  %17 = load ptr, ptr %.06.i.i, align 8, !tbaa !94
  %18 = load ptr, ptr %2, align 8, !tbaa !95
  %.not.i.i.i.i.i = icmp eq ptr %17, null
  br i1 %.not.i.i.i.i.i, label %_ZN15ref_vector_coreI4expr19ref_manager_wrapperIS0_11ast_managerEE7dec_refEPS0_.exit.i.i, label %19

19:                                               ; preds = %.lr.ph.i.i
  %20 = getelementptr inbounds nuw i8, ptr %17, i64 8
  %21 = load i32, ptr %20, align 4, !tbaa !96
  %22 = add i32 %21, -1
  store i32 %22, ptr %20, align 4, !tbaa !96
  %23 = icmp eq i32 %22, 0
  br i1 %23, label %24, label %_ZN15ref_vector_coreI4expr19ref_manager_wrapperIS0_11ast_managerEE7dec_refEPS0_.exit.i.i

24:                                               ; preds = %19
  tail call void @_ZN11ast_manager11delete_nodeEP3ast(ptr noundef nonnull align 8 dereferenceable(976) %18, ptr noundef nonnull %17)
  br label %_ZN15ref_vector_coreI4expr19ref_manager_wrapperIS0_11ast_managerEE7dec_refEPS0_.exit.i.i

_ZN15ref_vector_coreI4expr19ref_manager_wrapperIS0_11ast_managerEE7dec_refEPS0_.exit.i.i: ; preds = %24, %19, %.lr.ph.i.i
  %25 = getelementptr inbounds nuw i8, ptr %.06.i.i, i64 8
  %26 = icmp ult ptr %25, %16
  br i1 %26, label %.lr.ph.i.i, label %_ZN15ref_vector_coreI4expr19ref_manager_wrapperIS0_11ast_managerEE13dec_range_refEPKPS0_S7_.exit.i, !llvm.loop !98

_ZN15ref_vector_coreI4expr19ref_manager_wrapperIS0_11ast_managerEE13dec_range_refEPKPS0_S7_.exit.i: ; preds = %_ZN15ref_vector_coreI4expr19ref_manager_wrapperIS0_11ast_managerEE7dec_refEPS0_.exit.i.i
  %.pre.i = load ptr, ptr %3, align 8, !tbaa !91
  %.not.i.i = icmp eq ptr %.pre.i, null
  br i1 %.not.i.i, label %_ZN15ref_vector_coreI4expr19ref_manager_wrapperIS0_11ast_managerEE5resetEv.exit, label %_ZN15ref_vector_coreI4expr19ref_manager_wrapperIS0_11ast_managerEE13dec_range_refEPKPS0_S7_.exit.thread4.i

_ZN15ref_vector_coreI4expr19ref_manager_wrapperIS0_11ast_managerEE13dec_range_refEPKPS0_S7_.exit.thread4.i: ; preds = %_ZN15ref_vector_coreI4expr19ref_manager_wrapperIS0_11ast_managerEE13dec_range_refEPKPS0_S7_.exit.i, %_ZNK6vectorIP4exprLb0EjE4sizeEv.exit.i
  %27 = phi ptr [ %.pre.i, %_ZN15ref_vector_coreI4expr19ref_manager_wrapperIS0_11ast_managerEE13dec_range_refEPKPS0_S7_.exit.i ], [ %.pre, %_ZNK6vectorIP4exprLb0EjE4sizeEv.exit.i ]
  %28 = getelementptr inbounds i8, ptr %27, i64 -4
  store i32 0, ptr %28, align 4, !tbaa !83
  br label %_ZN15ref_vector_coreI4expr19ref_manager_wrapperIS0_11ast_managerEE5resetEv.exit

29:                                               ; preds = %.lr.ph, %29
  %.01214 = phi ptr [ %4, %.lr.ph ], [ %33, %29 ]
  %30 = load ptr, ptr %.01214, align 8, !tbaa !94
  %31 = load ptr, ptr %11, align 8, !tbaa !109
  %32 = tail call noundef zeroext i1 @_ZN3sls7context14add_constraintEP4expr(ptr noundef nonnull align 8 dereferenceable(321) %31, ptr noundef %30)
  %33 = getelementptr inbounds nuw i8, ptr %.01214, i64 8
  %.not = icmp eq ptr %33, %10
  br i1 %.not, label %._crit_edge, label %29

_ZN15ref_vector_coreI4expr19ref_manager_wrapperIS0_11ast_managerEE5resetEv.exit: ; preds = %1, %_ZN15ref_vector_coreI4expr19ref_manager_wrapperIS0_11ast_managerEE13dec_range_refEPKPS0_S7_.exit.thread4.i, %_ZN15ref_vector_coreI4expr19ref_manager_wrapperIS0_11ast_managerEE13dec_range_refEPKPS0_S7_.exit.i, %._crit_edge, %_ZNK15ref_vector_coreI4expr19ref_manager_wrapperIS0_11ast_managerEE5emptyEv.exit
  %.0 = phi i1 [ false, %_ZNK15ref_vector_coreI4expr19ref_manager_wrapperIS0_11ast_managerEE5emptyEv.exit ], [ true, %._crit_edge ], [ true, %_ZN15ref_vector_coreI4expr19ref_manager_wrapperIS0_11ast_managerEE13dec_range_refEPKPS0_S7_.exit.i ], [ true, %_ZN15ref_vector_coreI4expr19ref_manager_wrapperIS0_11ast_managerEE13dec_range_refEPKPS0_S7_.exit.thread4.i ], [ false, %1 ]
  ret i1 %.0
}